target datalayout = "e-m:e-p270:32:32-p271:32:32-p272:64:64-i64:64-i128:128-f80:128-n8:16:32:64-S128"
target triple = "x86_64-pc-linux-gnu"

%struct.ScanKeyData = type { i32, i16, i16, i32, i32, %struct.FmgrInfo, i64 }
%struct.FmgrInfo = type { ptr, i32, i16, i8, i8, i8, ptr, ptr, ptr }
%struct.FormData_pg_inherits = type { i32, i32, i32, i8 }
%struct.HeapTupleData = type { i32, %struct.ItemPointerData, i32, ptr }
%struct.ItemPointerData = type { %struct.BlockIdData, i16 }
%struct.BlockIdData = type { i16, i16 }
%struct.HeapTupleHeaderData = type { %union.anon, %struct.ItemPointerData, i16, i16, i8, [0 x i8] }
%union.anon = type { %struct.HeapTupleFields }
%struct.HeapTupleFields = type { i32, i32, %union.anon.0 }
%union.anon.0 = type { i32 }

; Function Attrs: inlinehint nounwind uwtable
define internal ptr @GETSTRUCT(ptr noundef %0) #5 {
  %2 = alloca ptr, align 8
  store ptr %0, ptr %2, align 8
  %3 = load ptr, ptr %2, align 8
  %4 = getelementptr inbounds nuw %struct.HeapTupleData, ptr %3, i32 0, i32 3
  %5 = load ptr, ptr %4, align 8
  %6 = load ptr, ptr %2, align 8
  %7 = getelementptr inbounds nuw %struct.HeapTupleData, ptr %6, i32 0, i32 3
  %8 = load ptr, ptr %7, align 8
  %9 = getelementptr inbounds nuw %struct.HeapTupleHeaderData, ptr %8, i32 0, i32 4
  %10 = load i8, ptr %9, align 2
  %11 = zext i8 %10 to i32
  %12 = sext i32 %11 to i64
  %13 = getelementptr inbounds i8, ptr %5, i64 %12
  ret ptr %13
}

; Function Attrs: inlinehint nounwind uwtable
define internal i64 @Int32GetDatum(i32 noundef %0) #5 {
  %2 = alloca i32, align 4
  store i32 %0, ptr %2, align 4
  %3 = load i32, ptr %2, align 4
  %4 = sext i32 %3 to i64
  ret i64 %4
}

; Function Attrs: inlinehint nounwind uwtable
define internal i64 @ObjectIdGetDatum(i32 noundef %0) #5 {
  %2 = alloca i32, align 4
  store i32 %0, ptr %2, align 4
  %3 = load i32, ptr %2, align 4
  %4 = zext i32 %3 to i64
  ret i64 %4
}

; Function Attrs: nounwind uwtable
define internal i32 @get_partition_parent_worker(ptr noundef %0, i32 noundef %1, ptr noundef %2) #0 {
  %4 = alloca ptr, align 8
  %5 = alloca i32, align 4
  %6 = alloca ptr, align 8
  %7 = alloca ptr, align 8
  %8 = alloca [2 x %struct.ScanKeyData], align 16
  %9 = alloca i32, align 4
  %10 = alloca ptr, align 8
  %11 = alloca ptr, align 8
  store ptr %0, ptr %4, align 8
  store i32 %1, ptr %5, align 4
  store ptr %2, ptr %6, align 8
  call void @llvm.lifetime.start.p0(i64 8, ptr %7) #6
  call void @llvm.lifetime.start.p0(i64 144, ptr %8) #6
  call void @llvm.lifetime.start.p0(i64 4, ptr %9) #6
  store i32 0, ptr %9, align 4
  call void @llvm.lifetime.start.p0(i64 8, ptr %10) #6
  %12 = load ptr, ptr %6, align 8
  store i8 0, ptr %12, align 1
  %13 = getelementptr inbounds [2 x %struct.ScanKeyData], ptr %8, i64 0, i64 0
  %14 = load i32, ptr %5, align 4
  %15 = call i64 @ObjectIdGetDatum(i32 noundef %14)
  call void @ScanKeyInit(ptr noundef %13, i16 noundef signext 1, i16 noundef zeroext 3, i32 noundef 184, i64 noundef %15)
  %16 = getelementptr inbounds [2 x %struct.ScanKeyData], ptr %8, i64 0, i64 1
  %17 = call i64 @Int32GetDatum(i32 noundef 1)
  call void @ScanKeyInit(ptr noundef %16, i16 noundef signext 3, i16 noundef zeroext 3, i32 noundef 65, i64 noundef %17)
  %18 = load ptr, ptr %4, align 8
  %19 = getelementptr inbounds [2 x %struct.ScanKeyData], ptr %8, i64 0, i64 0
  %20 = call ptr @systable_beginscan(ptr noundef %18, i32 noundef 2680, i1 noundef zeroext true, ptr noundef null, i32 noundef 2, ptr noundef %19)
  store ptr %20, ptr %7, align 8
  %21 = load ptr, ptr %7, align 8
  %22 = call ptr @systable_getnext(ptr noundef %21)
  store ptr %22, ptr %10, align 8
  %23 = load ptr, ptr %10, align 8
  %24 = icmp ne ptr %23, null
  br i1 %24, label %25, label %38

25:                                               ; preds = %3
  call void @llvm.lifetime.start.p0(i64 8, ptr %11) #6
  %26 = load ptr, ptr %10, align 8
  %27 = call ptr @GETSTRUCT(ptr noundef %26)
  store ptr %27, ptr %11, align 8
  %28 = load ptr, ptr %11, align 8
  %29 = getelementptr inbounds nuw %struct.FormData_pg_inherits, ptr %28, i32 0, i32 3
  %30 = load i8, ptr %29, align 4, !range !4, !noundef !5
  %31 = trunc i8 %30 to i1
  br i1 %31, label %32, label %34

32:                                               ; preds = %25
  %33 = load ptr, ptr %6, align 8
  store i8 1, ptr %33, align 1
  br label %34

34:                                               ; preds = %32, %25
  %35 = load ptr, ptr %11, align 8
  %36 = getelementptr inbounds nuw %struct.FormData_pg_inherits, ptr %35, i32 0, i32 1
  %37 = load i32, ptr %36, align 4
  store i32 %37, ptr %9, align 4
  call void @llvm.lifetime.end.p0(i64 8, ptr %11) #6
  br label %38

38:                                               ; preds = %34, %3
  %39 = load ptr, ptr %7, align 8
  call void @systable_endscan(ptr noundef %39)
  %40 = load i32, ptr %9, align 4
  call void @llvm.lifetime.end.p0(i64 8, ptr %10) #6
  call void @llvm.lifetime.end.p0(i64 4, ptr %9) #6
  call void @llvm.lifetime.end.p0(i64 144, ptr %8) #6
  call void @llvm.lifetime.end.p0(i64 8, ptr %7) #6
  ret i32 %40
}

; Function Attrs: nounwind uwtable
define internal void @get_partition_ancestors_worker(ptr noundef %0, i32 noundef %1, ptr noundef %2) #0 {
  %4 = alloca ptr, align 8
  %5 = alloca i32, align 4
  %6 = alloca ptr, align 8
  %7 = alloca i32, align 4
  %8 = alloca i8, align 1
  %9 = alloca i32, align 4
  store ptr %0, ptr %4, align 8
  store i32 %1, ptr %5, align 4
  store ptr %2, ptr %6, align 8
  call void @llvm.lifetime.start.p0(i64 4, ptr %7) #6
  call void @llvm.lifetime.start.p0(i64 1, ptr %8) #6
  %10 = load ptr, ptr %4, align 8
  %11 = load i32, ptr %5, align 4
  %12 = call i32 @get_partition_parent_worker(ptr noundef %10, i32 noundef %11, ptr noundef %8)
  store i32 %12, ptr %7, align 4
  %13 = load i32, ptr %7, align 4
  %14 = icmp eq i32 %13, 0
  br i1 %14, label %18, label %15

15:                                               ; preds = %3
  %16 = load i8, ptr %8, align 1, !range !4, !noundef !5
  %17 = trunc i8 %16 to i1
  br i1 %17, label %18, label %19

18:                                               ; preds = %15, %3
  store i32 1, ptr %9, align 4
  br label %28

19:                                               ; preds = %15
  %20 = load ptr, ptr %6, align 8
  %21 = load ptr, ptr %20, align 8
  %22 = load i32, ptr %7, align 4
  %23 = call ptr @lappend_oid(ptr noundef %21, i32 noundef %22)
  %24 = load ptr, ptr %6, align 8
  store ptr %23, ptr %24, align 8
  %25 = load ptr, ptr %4, align 8
  %26 = load i32, ptr %7, align 4
  %27 = load ptr, ptr %6, align 8
  call void @get_partition_ancestors_worker(ptr noundef %25, i32 noundef %26, ptr noundef %27)
  store i32 0, ptr %9, align 4
  br label %28

28:                                               ; preds = %19, %18
  call void @llvm.lifetime.end.p0(i64 1, ptr %8) #6
  call void @llvm.lifetime.end.p0(i64 4, ptr %7) #6
  %29 = load i32, ptr %9, align 4
  switch i32 %29, label %31 [
    i32 0, label %30
    i32 1, label %30
  ]

30:                                               ; preds = %28, %28
  ret void

31:                                               ; preds = %28
  unreachable
}