; Function Attrs: nounwind uwtable
define internal fastcc void @get_partition_ancestors_worker(ptr noundef %0, i32 noundef %1, ptr noundef nonnull captures(none) %2) unnamed_addr #0 {
  %4 = alloca [2 x %struct.ScanKeyData], align 16
  call void @llvm.lifetime.start.p0(i64 144, ptr nonnull %4) #5
  %5 = zext i32 %1 to i64
  call void @ScanKeyInit(ptr noundef nonnull %4, i16 noundef signext 1, i16 noundef zeroext 3, i32 noundef 184, i64 noundef %5) #5
  %6 = getelementptr inbounds nuw i8, ptr %4, i64 72
  call void @ScanKeyInit(ptr noundef nonnull %6, i16 noundef signext 3, i16 noundef zeroext 3, i32 noundef 65, i64 noundef 1) #5
  %7 = call ptr @systable_beginscan(ptr noundef %0, i32 noundef 2680, i1 noundef zeroext true, ptr noundef null, i32 noundef 2, ptr noundef nonnull %4) #5
  %8 = call ptr @systable_getnext(ptr noundef %7) #5
  %.not.i = icmp eq ptr %8, null
  br i1 %.not.i, label %get_partition_parent_worker.exit.thread, label %get_partition_parent_worker.exit

get_partition_parent_worker.exit.thread:          ; preds = %3
  call void @systable_endscan(ptr noundef %7) #5
  call void @llvm.lifetime.end.p0(i64 144, ptr nonnull %4) #5
  br label %24

get_partition_parent_worker.exit:                 ; preds = %3
  %9 = getelementptr i8, ptr %8, i64 16
  %.val.i = load ptr, ptr %9, align 8
  %10 = getelementptr inbounds nuw i8, ptr %.val.i, i64 22
  %11 = load i8, ptr %10, align 2
  %12 = zext i8 %11 to i64
  %13 = getelementptr inbounds nuw i8, ptr %.val.i, i64 %12
  %14 = getelementptr inbounds nuw i8, ptr %13, i64 12
  %15 = load i8, ptr %14, align 4, !range !4, !noundef !5
  %16 = getelementptr inbounds nuw i8, ptr %13, i64 4
  %17 = load i32, ptr %16, align 4
  call void @systable_endscan(ptr noundef %7) #5
  call void @llvm.lifetime.end.p0(i64 144, ptr nonnull %4) #5
  %18 = icmp eq i32 %17, 0
  br i1 %18, label %24, label %19

19:                                               ; preds = %get_partition_parent_worker.exit
  %20 = trunc nuw i8 %15 to i1
  br i1 %20, label %24, label %21

21:                                               ; preds = %19
  %22 = load ptr, ptr %2, align 8
  %23 = call ptr @lappend_oid(ptr noundef %22, i32 noundef %17) #5
  store ptr %23, ptr %2, align 8
  call fastcc void @get_partition_ancestors_worker(ptr noundef %0, i32 noundef %17, ptr noundef %2)
  br label %24

24:                                               ; preds = %get_partition_parent_worker.exit.thread, %get_partition_parent_worker.exit, %19, %21
  ret void
}